target datalayout = "e-m:e-p270:32:32-p271:32:32-p272:64:64-i64:64-i128:128-f80:128-n8:16:32:64-S128"
target triple = "x86_64-pc-linux-gnu"

%struct.b2ChainShape = type { i32, i32, i32, i32, i32, ptr, ptr, i16 }

; Function Attrs: nounwind uwtable
define hidden void @b2FreeChainData(ptr noundef %0) #0 {
  %2 = alloca ptr, align 8
  store ptr %0, ptr %2, align 8, !tbaa !143
  %3 = load ptr, ptr %2, align 8, !tbaa !143
  %4 = getelementptr inbounds nuw %struct.b2ChainShape, ptr %3, i32 0, i32 5
  %5 = load ptr, ptr %4, align 8, !tbaa !172
  %6 = load ptr, ptr %2, align 8, !tbaa !143
  %7 = getelementptr inbounds nuw %struct.b2ChainShape, ptr %6, i32 0, i32 3
  %8 = load i32, ptr %7, align 4, !tbaa !171
  %9 = sext i32 %8 to i64
  %10 = mul i64 %9, 4
  %11 = trunc i64 %10 to i32
  call void @b2Free(ptr noundef %5, i32 noundef %11)
  %12 = load ptr, ptr %2, align 8, !tbaa !143
  %13 = getelementptr inbounds nuw %struct.b2ChainShape, ptr %12, i32 0, i32 5
  store ptr null, ptr %13, align 8, !tbaa !172
  %14 = load ptr, ptr %2, align 8, !tbaa !143
  %15 = getelementptr inbounds nuw %struct.b2ChainShape, ptr %14, i32 0, i32 6
  %16 = load ptr, ptr %15, align 8, !tbaa !156
  %17 = load ptr, ptr %2, align 8, !tbaa !143
  %18 = getelementptr inbounds nuw %struct.b2ChainShape, ptr %17, i32 0, i32 4
  %19 = load i32, ptr %18, align 8, !tbaa !155
  %20 = sext i32 %19 to i64
  %21 = mul i64 %20, 24
  %22 = trunc i64 %21 to i32
  call void @b2Free(ptr noundef %16, i32 noundef %22)
  %23 = load ptr, ptr %2, align 8, !tbaa !143
  %24 = getelementptr inbounds nuw %struct.b2ChainShape, ptr %23, i32 0, i32 6
  store ptr null, ptr %24, align 8, !tbaa !156
  ret void
}