; Function Attrs: nounwind uwtable
define hidden void @b2FreeChainData(ptr noundef captures(none) %0) local_unnamed_addr #0 {
  %2 = getelementptr inbounds nuw i8, ptr %0, i64 24
  %3 = load ptr, ptr %2, align 8, !tbaa !144
  %4 = getelementptr inbounds nuw i8, ptr %0, i64 12
  %5 = load i32, ptr %4, align 4, !tbaa !143
  %6 = shl i32 %5, 2
  tail call void @b2Free(ptr noundef %3, i32 noundef %6) #10
  store ptr null, ptr %2, align 8, !tbaa !144
  %7 = getelementptr inbounds nuw i8, ptr %0, i64 32
  %8 = load ptr, ptr %7, align 8, !tbaa !130
  %9 = getelementptr inbounds nuw i8, ptr %0, i64 16
  %10 = load i32, ptr %9, align 8, !tbaa !129
  %11 = mul i32 %10, 24
  tail call void @b2Free(ptr noundef %8, i32 noundef %11) #10
  store ptr null, ptr %7, align 8, !tbaa !130
  ret void
}